; Function Attrs: nounwind uwtable
define ptr @l_Nat_SOM_Poly_mulMon_go(ptr noundef %0, ptr noundef %1, ptr noundef %2, ptr noundef %3) local_unnamed_addr #0 {
  %5 = ptrtoint ptr %0 to i64
  %6 = and i64 %5, 1
  %.not61 = icmp eq i64 %6, 0
  %7 = lshr i64 %5, 1
  %8 = icmp ult ptr %0, inttoptr (i64 2 to ptr)
  %9 = ptrtoint ptr %1 to i64
  %10 = and i64 %9, 1
  %.not62 = icmp eq i64 %10, 0
  br label %11

11:                                               ; preds = %lean_inc.exit, %4
  %.025 = phi ptr [ %3, %4 ], [ %114, %lean_inc.exit ]
  %.0 = phi ptr [ %2, %4 ], [ %41, %lean_inc.exit ]
  %12 = ptrtoint ptr %.0 to i64
  %13 = and i64 %12, 1
  %.not.i39 = icmp eq i64 %13, 0
  br i1 %.not.i39, label %17, label %14

14:                                               ; preds = %11
  %15 = lshr i64 %12, 1
  %16 = trunc i64 %15 to i32
  br label %lean_obj_tag.exit

17:                                               ; preds = %11
  %18 = getelementptr i8, ptr %.0, i64 4
  %.val.i = load i32, ptr %18, align 4
  %19 = lshr i32 %.val.i, 24
  br label %lean_obj_tag.exit

lean_obj_tag.exit:                                ; preds = %14, %17
  %.0.i = phi i32 [ %16, %14 ], [ %19, %17 ]
  %20 = icmp eq i32 %.0.i, 0
  br i1 %20, label %21, label %29

21:                                               ; preds = %lean_obj_tag.exit
  br i1 %.not62, label %22, label %lean_dec.exit32

22:                                               ; preds = %21
  %23 = load i32, ptr %1, align 4, !tbaa !8
  %24 = icmp sgt i32 %23, 1
  br i1 %24, label %25, label %27, !prof !11

25:                                               ; preds = %22
  %26 = add nsw i32 %23, -1
  store i32 %26, ptr %1, align 4, !tbaa !8
  br label %lean_dec.exit32

27:                                               ; preds = %22
  %.not.i = icmp eq i32 %23, 0
  br i1 %.not.i, label %lean_dec.exit32, label %28

28:                                               ; preds = %27
  tail call void @lean_dec_ref_cold(ptr noundef nonnull %1) #5
  br label %lean_dec.exit32

lean_dec.exit32:                                  ; preds = %28, %27, %25, %21
  ret ptr %.025

29:                                               ; preds = %lean_obj_tag.exit
  %30 = getelementptr inbounds nuw i8, ptr %.0, i64 8
  %31 = load ptr, ptr %30, align 8, !tbaa !4
  %32 = ptrtoint ptr %31 to i64
  %33 = and i64 %32, 1
  %.not = icmp eq i64 %33, 0
  br i1 %.not, label %34, label %lean_inc.exit29

34:                                               ; preds = %29
  %.val.i40 = load i32, ptr %31, align 4, !tbaa !8
  %35 = icmp sgt i32 %.val.i40, 0
  br i1 %35, label %36, label %38, !prof !11

36:                                               ; preds = %34
  %37 = add nuw i32 %.val.i40, 1
  store i32 %37, ptr %31, align 4, !tbaa !8
  br label %lean_inc.exit29

38:                                               ; preds = %34
  %.not.i41 = icmp eq i32 %.val.i40, 0
  br i1 %.not.i41, label %lean_inc.exit29, label %39

39:                                               ; preds = %38
  tail call void @lean_inc_ref_cold(ptr noundef nonnull %31) #5
  br label %lean_inc.exit29

lean_inc.exit29:                                  ; preds = %39, %38, %36, %29
  %40 = getelementptr inbounds nuw i8, ptr %.0, i64 16
  %41 = load ptr, ptr %40, align 8, !tbaa !4
  %42 = ptrtoint ptr %41 to i64
  %43 = and i64 %42, 1
  %.not57 = icmp eq i64 %43, 0
  br i1 %.not57, label %44, label %lean_inc.exit28

44:                                               ; preds = %lean_inc.exit29
  %.val.i42 = load i32, ptr %41, align 4, !tbaa !8
  %45 = icmp sgt i32 %.val.i42, 0
  br i1 %45, label %46, label %48, !prof !11

46:                                               ; preds = %44
  %47 = add nuw i32 %.val.i42, 1
  store i32 %47, ptr %41, align 4, !tbaa !8
  br label %lean_inc.exit28

48:                                               ; preds = %44
  %.not.i43 = icmp eq i32 %.val.i42, 0
  br i1 %.not.i43, label %lean_inc.exit28, label %49

49:                                               ; preds = %48
  tail call void @lean_inc_ref_cold(ptr noundef nonnull %41) #5
  br label %lean_inc.exit28

lean_inc.exit28:                                  ; preds = %49, %48, %46, %lean_inc.exit29
  br i1 %.not.i39, label %50, label %lean_dec.exit31

50:                                               ; preds = %lean_inc.exit28
  %51 = load i32, ptr %.0, align 4, !tbaa !8
  %52 = icmp sgt i32 %51, 1
  br i1 %52, label %53, label %55, !prof !11

53:                                               ; preds = %50
  %54 = add nsw i32 %51, -1
  store i32 %54, ptr %.0, align 4, !tbaa !8
  br label %lean_dec.exit31

55:                                               ; preds = %50
  %.not.i33 = icmp eq i32 %51, 0
  br i1 %.not.i33, label %lean_dec.exit31, label %56

56:                                               ; preds = %55
  tail call void @lean_dec_ref_cold(ptr noundef nonnull %.0) #5
  br label %lean_dec.exit31

lean_dec.exit31:                                  ; preds = %56, %55, %53, %lean_inc.exit28
  %57 = getelementptr inbounds nuw i8, ptr %31, i64 8
  %58 = load ptr, ptr %57, align 8, !tbaa !4
  %59 = ptrtoint ptr %58 to i64
  %60 = and i64 %59, 1
  %.not59 = icmp eq i64 %60, 0
  br i1 %.not59, label %61, label %lean_inc.exit27

61:                                               ; preds = %lean_dec.exit31
  %.val.i45 = load i32, ptr %58, align 4, !tbaa !8
  %62 = icmp sgt i32 %.val.i45, 0
  br i1 %62, label %63, label %65, !prof !11

63:                                               ; preds = %61
  %64 = add nuw i32 %.val.i45, 1
  store i32 %64, ptr %58, align 4, !tbaa !8
  br label %lean_inc.exit27

65:                                               ; preds = %61
  %.not.i46 = icmp eq i32 %.val.i45, 0
  br i1 %.not.i46, label %lean_inc.exit27, label %66

66:                                               ; preds = %65
  tail call void @lean_inc_ref_cold(ptr noundef nonnull %58) #5
  br label %lean_inc.exit27

lean_inc.exit27:                                  ; preds = %66, %65, %63, %lean_dec.exit31
  %67 = getelementptr inbounds nuw i8, ptr %31, i64 16
  %68 = load ptr, ptr %67, align 8, !tbaa !4
  %69 = ptrtoint ptr %68 to i64
  %70 = and i64 %69, 1
  %.not60 = icmp eq i64 %70, 0
  br i1 %.not60, label %71, label %lean_inc.exit26

71:                                               ; preds = %lean_inc.exit27
  %.val.i48 = load i32, ptr %68, align 4, !tbaa !8
  %72 = icmp sgt i32 %.val.i48, 0
  br i1 %72, label %73, label %75, !prof !11

73:                                               ; preds = %71
  %74 = add nuw i32 %.val.i48, 1
  store i32 %74, ptr %68, align 4, !tbaa !8
  br label %lean_inc.exit26

75:                                               ; preds = %71
  %.not.i49 = icmp eq i32 %.val.i48, 0
  br i1 %.not.i49, label %lean_inc.exit26, label %76

76:                                               ; preds = %75
  tail call void @lean_inc_ref_cold(ptr noundef nonnull %68) #5
  br label %lean_inc.exit26

lean_inc.exit26:                                  ; preds = %76, %75, %73, %lean_inc.exit27
  br i1 %.not, label %77, label %lean_dec.exit30

77:                                               ; preds = %lean_inc.exit26
  %78 = load i32, ptr %31, align 4, !tbaa !8
  %79 = icmp sgt i32 %78, 1
  br i1 %79, label %80, label %82, !prof !11

80:                                               ; preds = %77
  %81 = add nsw i32 %78, -1
  store i32 %81, ptr %31, align 4, !tbaa !8
  br label %lean_dec.exit30

82:                                               ; preds = %77
  %.not.i35 = icmp eq i32 %78, 0
  br i1 %.not.i35, label %lean_dec.exit30, label %83

83:                                               ; preds = %82
  tail call void @lean_dec_ref_cold(ptr noundef nonnull %31) #5
  br label %lean_dec.exit30

lean_dec.exit30:                                  ; preds = %83, %82, %80, %lean_inc.exit26
  br i1 %.not61, label %lean_nat_mul.exit, label %84, !prof !12

84:                                               ; preds = %lean_dec.exit30
  br i1 %.not59, label %lean_nat_mul.exit.thread56, label %86, !prof !12

lean_nat_mul.exit.thread56:                       ; preds = %84
  %85 = tail call ptr @lean_nat_big_mul(ptr noundef %0, ptr noundef %58) #5
  br label %98

86:                                               ; preds = %84
  br i1 %8, label %lean_dec.exit, label %87

87:                                               ; preds = %86
  %88 = lshr i64 %59, 1
  %mul.i = tail call { i64, i1 } @llvm.umul.with.overflow.i64(i64 %7, i64 %88)
  %mul.val.i = extractvalue { i64, i1 } %mul.i, 0
  %89 = icmp sgt i64 %mul.val.i, -1
  br i1 %89, label %90, label %95

90:                                               ; preds = %87
  %mul.ov.i = extractvalue { i64, i1 } %mul.i, 1
  br i1 %mul.ov.i, label %95, label %91

91:                                               ; preds = %90
  %92 = shl nuw i64 %mul.val.i, 1
  %93 = or disjoint i64 %92, 1
  %94 = inttoptr i64 %93 to ptr
  br label %lean_dec.exit

95:                                               ; preds = %90, %87
  %96 = tail call ptr @lean_nat_overflow_mul(i64 noundef %7, i64 noundef %88) #5
  br label %lean_dec.exit

lean_nat_mul.exit:                                ; preds = %lean_dec.exit30
  %97 = tail call ptr @lean_nat_big_mul(ptr noundef %0, ptr noundef %58) #5
  br i1 %.not59, label %98, label %lean_dec.exit

98:                                               ; preds = %lean_nat_mul.exit.thread56, %lean_nat_mul.exit
  %99 = phi ptr [ %85, %lean_nat_mul.exit.thread56 ], [ %97, %lean_nat_mul.exit ]
  %100 = load i32, ptr %58, align 4, !tbaa !8
  %101 = icmp sgt i32 %100, 1
  br i1 %101, label %102, label %104, !prof !11

102:                                              ; preds = %98
  %103 = add nsw i32 %100, -1
  store i32 %103, ptr %58, align 4, !tbaa !8
  br label %lean_dec.exit

104:                                              ; preds = %98
  %.not.i37 = icmp eq i32 %100, 0
  br i1 %.not.i37, label %lean_dec.exit, label %105

105:                                              ; preds = %104
  tail call void @lean_dec_ref_cold(ptr noundef nonnull %58) #5
  br label %lean_dec.exit

lean_dec.exit:                                    ; preds = %95, %91, %86, %105, %104, %102, %lean_nat_mul.exit
  %.2.i55 = phi ptr [ %97, %lean_nat_mul.exit ], [ %99, %102 ], [ %99, %104 ], [ %99, %105 ], [ %96, %95 ], [ %94, %91 ], [ %0, %86 ]
  %106 = load ptr, ptr @l_Nat_Linear_hugeFuel, align 8, !tbaa !4
  br i1 %.not62, label %107, label %lean_inc.exit

107:                                              ; preds = %lean_dec.exit
  %.val.i51 = load i32, ptr %1, align 4, !tbaa !8
  %108 = icmp sgt i32 %.val.i51, 0
  br i1 %108, label %109, label %111, !prof !11

109:                                              ; preds = %107
  %110 = add nuw i32 %.val.i51, 1
  store i32 %110, ptr %1, align 4, !tbaa !8
  br label %lean_inc.exit

111:                                              ; preds = %107
  %.not.i52 = icmp eq i32 %.val.i51, 0
  br i1 %.not.i52, label %lean_inc.exit, label %112

112:                                              ; preds = %111
  tail call void @lean_inc_ref_cold(ptr noundef nonnull %1) #5
  br label %lean_inc.exit

lean_inc.exit:                                    ; preds = %112, %111, %109, %lean_dec.exit
  %113 = tail call ptr @l_Nat_SOM_Mon_mul_go(ptr noundef %106, ptr noundef %1, ptr noundef %68)
  %114 = tail call ptr @l_Nat_SOM_Poly_insertSorted(ptr noundef %.2.i55, ptr noundef %113, ptr noundef %.025)
  br label %11
}